target datalayout = "e-m:e-p270:32:32-p271:32:32-p272:64:64-i64:64-i128:128-f80:128-n8:16:32:64-S128"
target triple = "x86_64-unknown-linux-gnu"

%"class.ue2::(anonymous namespace)::NFABuilderImpl" = type <{ %"class.ue2::NFABuilder", ptr, ptr, %"class.std::unique_ptr.85", %"class.ue2::ExpressionInfo", %"class.std::vector.93", i32, [4 x i8] }>
%"class.ue2::NFABuilder" = type { ptr }
%"class.std::unique_ptr.85" = type { %"struct.std::__uniq_ptr_data.86" }
%"struct.std::__uniq_ptr_data.86" = type { %"class.std::__uniq_ptr_impl.87" }
%"class.std::__uniq_ptr_impl.87" = type { %"class.std::tuple.88" }
%"class.std::tuple.88" = type { %"struct.std::_Tuple_impl.89" }
%"struct.std::_Tuple_impl.89" = type { %"struct.std::_Head_base.92" }
%"struct.std::_Head_base.92" = type { ptr }
%"class.ue2::ExpressionInfo" = type <{ i32, i32, i8, i8, i8, i8, i32, i64, i64, i64, i32, i32, i8, [7 x i8] }>
%"class.std::vector.93" = type { %"struct.std::_Vector_base.94" }
%"struct.std::_Vector_base.94" = type { %"struct.std::_Vector_base<ue2::graph_detail::vertex_descriptor<ue2::ue2_graph<ue2::NGHolder, ue2::NFAGraphVertexProps, ue2::NFAGraphEdgeProps>>, std::allocator<ue2::graph_detail::vertex_descriptor<ue2::ue2_graph<ue2::NGHolder, ue2::NFAGraphVertexProps, ue2::NFAGraphEdgeProps>>>>::_Vector_impl" }
%"struct.std::_Vector_base<ue2::graph_detail::vertex_descriptor<ue2::ue2_graph<ue2::NGHolder, ue2::NFAGraphVertexProps, ue2::NFAGraphEdgeProps>>, std::allocator<ue2::graph_detail::vertex_descriptor<ue2::ue2_graph<ue2::NGHolder, ue2::NFAGraphVertexProps, ue2::NFAGraphEdgeProps>>>>::_Vector_impl" = type { %"struct.std::_Vector_base<ue2::graph_detail::vertex_descriptor<ue2::ue2_graph<ue2::NGHolder, ue2::NFAGraphVertexProps, ue2::NFAGraphEdgeProps>>, std::allocator<ue2::graph_detail::vertex_descriptor<ue2::ue2_graph<ue2::NGHolder, ue2::NFAGraphVertexProps, ue2::NFAGraphEdgeProps>>>>::_Vector_impl_data" }
%"struct.std::_Vector_base<ue2::graph_detail::vertex_descriptor<ue2::ue2_graph<ue2::NGHolder, ue2::NFAGraphVertexProps, ue2::NFAGraphEdgeProps>>, std::allocator<ue2::graph_detail::vertex_descriptor<ue2::ue2_graph<ue2::NGHolder, ue2::NFAGraphVertexProps, ue2::NFAGraphEdgeProps>>>>::_Vector_impl_data" = type { ptr, ptr, ptr }
%"class.ue2::NGHolder" = type { ptr, %"class.ue2::ue2_graph", i32, %"class.ue2::graph_detail::vertex_descriptor", %"class.ue2::graph_detail::vertex_descriptor", %"class.ue2::graph_detail::vertex_descriptor", %"class.ue2::graph_detail::vertex_descriptor" }
%"class.ue2::ue2_graph" = type { %"class.boost::intrusive::list", i64, i64, i64, i64 }
%"class.boost::intrusive::list" = type { %"class.boost::intrusive::list_impl" }
%"class.boost::intrusive::list_impl" = type { %"struct.boost::intrusive::list_impl<boost::intrusive::bhtraits<ue2::ue2_graph<ue2::NGHolder, ue2::NFAGraphVertexProps, ue2::NFAGraphEdgeProps>::vertex_node, boost::intrusive::list_node_traits<void *>, boost::intrusive::safe_link, boost::intrusive::dft_tag, 1>, unsigned long, true, void>::data_t" }
%"struct.boost::intrusive::list_impl<boost::intrusive::bhtraits<ue2::ue2_graph<ue2::NGHolder, ue2::NFAGraphVertexProps, ue2::NFAGraphEdgeProps>::vertex_node, boost::intrusive::list_node_traits<void *>, boost::intrusive::safe_link, boost::intrusive::dft_tag, 1>, unsigned long, true, void>::data_t" = type { %"struct.boost::intrusive::list_impl<boost::intrusive::bhtraits<ue2::ue2_graph<ue2::NGHolder, ue2::NFAGraphVertexProps, ue2::NFAGraphEdgeProps>::vertex_node, boost::intrusive::list_node_traits<void *>, boost::intrusive::safe_link, boost::intrusive::dft_tag, 1>, unsigned long, true, void>::root_plus_size" }
%"struct.boost::intrusive::list_impl<boost::intrusive::bhtraits<ue2::ue2_graph<ue2::NGHolder, ue2::NFAGraphVertexProps, ue2::NFAGraphEdgeProps>::vertex_node, boost::intrusive::list_node_traits<void *>, boost::intrusive::safe_link, boost::intrusive::dft_tag, 1>, unsigned long, true, void>::root_plus_size" = type { %"struct.boost::intrusive::detail::size_holder", %"struct.boost::intrusive::detail::default_header_holder" }
%"struct.boost::intrusive::detail::size_holder" = type { i64 }
%"struct.boost::intrusive::detail::default_header_holder" = type { %"struct.boost::intrusive::list_node" }
%"struct.boost::intrusive::list_node" = type { ptr, ptr }
%"class.ue2::graph_detail::vertex_descriptor" = type { ptr, i64 }
%"struct.std::pair.124" = type <{ %"class.ue2::graph_detail::edge_descriptor", i8, [7 x i8] }>
%"class.ue2::graph_detail::edge_descriptor" = type { ptr, i64 }

; Function Attrs: mustprogress nounwind uwtable
define linkonce_odr hidden noundef nonnull align 8 dereferenceable(8) ptr @_ZNSt10_Head_baseILm0EPN3ue28NGHolderELb0EE7_M_headERKS3_(ptr noundef nonnull align 8 dereferenceable(8) %__b) #1 comdat align 2 {
entry:
  %__b.addr = alloca ptr, align 8
  store ptr %__b, ptr %__b.addr, align 8
  %0 = load ptr, ptr %__b.addr, align 8
  %_M_head_impl = getelementptr inbounds %"struct.std::_Head_base.92", ptr %0, i32 0, i32 0
  ret ptr %_M_head_impl
}

; Function Attrs: mustprogress nounwind uwtable
define linkonce_odr hidden noundef nonnull align 8 dereferenceable(8) ptr @_ZNSt11_Tuple_implILm0EJPN3ue28NGHolderESt14default_deleteIS1_EEE7_M_headERKS5_(ptr noundef nonnull align 8 dereferenceable(8) %__t) #1 comdat align 2 {
entry:
  %__t.addr = alloca ptr, align 8
  store ptr %__t, ptr %__t.addr, align 8
  %0 = load ptr, ptr %__t.addr, align 8
  %call = call noundef nonnull align 8 dereferenceable(8) ptr @_ZNSt10_Head_baseILm0EPN3ue28NGHolderELb0EE7_M_headERKS3_(ptr noundef nonnull align 8 dereferenceable(8) %0) #2
  ret ptr %call
}

; Function Attrs: mustprogress nounwind uwtable
define linkonce_odr hidden noundef nonnull align 8 dereferenceable(8) ptr @_ZSt12__get_helperILm0EPN3ue28NGHolderEJSt14default_deleteIS1_EEERKT0_RKSt11_Tuple_implIXT_EJS5_DpT1_EE(ptr noundef nonnull align 8 dereferenceable(8) %__t) #1 comdat {
entry:
  %__t.addr = alloca ptr, align 8
  store ptr %__t, ptr %__t.addr, align 8
  %0 = load ptr, ptr %__t.addr, align 8
  %call = call noundef nonnull align 8 dereferenceable(8) ptr @_ZNSt11_Tuple_implILm0EJPN3ue28NGHolderESt14default_deleteIS1_EEE7_M_headERKS5_(ptr noundef nonnull align 8 dereferenceable(8) %0) #2
  ret ptr %call
}

; Function Attrs: mustprogress nounwind uwtable
define linkonce_odr hidden noundef nonnull align 8 dereferenceable(8) ptr @_ZSt3getILm0EJPN3ue28NGHolderESt14default_deleteIS1_EEERKNSt13tuple_elementIXT_ESt5tupleIJDpT0_EEE4typeERKS9_(ptr noundef nonnull align 8 dereferenceable(8) %__t) #1 comdat {
entry:
  %__t.addr = alloca ptr, align 8
  store ptr %__t, ptr %__t.addr, align 8
  %0 = load ptr, ptr %__t.addr, align 8
  %call = call noundef nonnull align 8 dereferenceable(8) ptr @_ZSt12__get_helperILm0EPN3ue28NGHolderEJSt14default_deleteIS1_EEERKT0_RKSt11_Tuple_implIXT_EJS5_DpT1_EE(ptr noundef nonnull align 8 dereferenceable(8) %0) #2
  ret ptr %call
}

; Function Attrs: mustprogress nounwind uwtable
define linkonce_odr hidden noundef ptr @_ZNKSt15__uniq_ptr_implIN3ue28NGHolderESt14default_deleteIS1_EE6_M_ptrEv(ptr noundef nonnull align 8 dereferenceable(8) %this) #1 comdat align 2 {
entry:
  %this.addr = alloca ptr, align 8
  store ptr %this, ptr %this.addr, align 8
  %this1 = load ptr, ptr %this.addr, align 8
  %_M_t = getelementptr inbounds %"class.std::__uniq_ptr_impl.87", ptr %this1, i32 0, i32 0
  %call = call noundef nonnull align 8 dereferenceable(8) ptr @_ZSt3getILm0EJPN3ue28NGHolderESt14default_deleteIS1_EEERKNSt13tuple_elementIXT_ESt5tupleIJDpT0_EEE4typeERKS9_(ptr noundef nonnull align 8 dereferenceable(8) %_M_t) #2
  %0 = load ptr, ptr %call, align 8
  ret ptr %0
}

; Function Attrs: mustprogress uwtable
define linkonce_odr hidden void @_ZN3ue28add_edgeINS_8NGHolderEEENSt9enable_ifIXsr12is_ue2_graphIT_EE5valueESt4pairINS3_15edge_descriptorEbEE4typeENS3_17vertex_descriptorES9_RS3_(ptr noalias sret(%"struct.std::pair.124") align 8 %agg.result, ptr %u.coerce0, i64 %u.coerce1, ptr %v.coerce0, i64 %v.coerce1, ptr noundef nonnull align 8 dereferenceable(136) %g) #3 comdat {
entry:
  %u = alloca %"class.ue2::graph_detail::vertex_descriptor", align 8
  %v = alloca %"class.ue2::graph_detail::vertex_descriptor", align 8
  %g.addr = alloca ptr, align 8
  %agg.tmp = alloca %"class.ue2::graph_detail::vertex_descriptor", align 8
  %agg.tmp1 = alloca %"class.ue2::graph_detail::vertex_descriptor", align 8
  %0 = getelementptr inbounds { ptr, i64 }, ptr %u, i32 0, i32 0
  store ptr %u.coerce0, ptr %0, align 8
  %1 = getelementptr inbounds { ptr, i64 }, ptr %u, i32 0, i32 1
  store i64 %u.coerce1, ptr %1, align 8
  %2 = getelementptr inbounds { ptr, i64 }, ptr %v, i32 0, i32 0
  store ptr %v.coerce0, ptr %2, align 8
  %3 = getelementptr inbounds { ptr, i64 }, ptr %v, i32 0, i32 1
  store i64 %v.coerce1, ptr %3, align 8
  store ptr %g, ptr %g.addr, align 8
  %4 = load ptr, ptr %g.addr, align 8
  %add.ptr = getelementptr inbounds i8, ptr %4, i64 8
  call void @llvm.memcpy.p0.p0.i64(ptr align 8 %agg.tmp, ptr align 8 %u, i64 16, i1 false)
  call void @llvm.memcpy.p0.p0.i64(ptr align 8 %agg.tmp1, ptr align 8 %v, i64 16, i1 false)
  %5 = getelementptr inbounds { ptr, i64 }, ptr %agg.tmp, i32 0, i32 0
  %6 = load ptr, ptr %5, align 8
  %7 = getelementptr inbounds { ptr, i64 }, ptr %agg.tmp, i32 0, i32 1
  %8 = load i64, ptr %7, align 8
  %9 = getelementptr inbounds { ptr, i64 }, ptr %agg.tmp1, i32 0, i32 0
  %10 = load ptr, ptr %9, align 8
  %11 = getelementptr inbounds { ptr, i64 }, ptr %agg.tmp1, i32 0, i32 1
  %12 = load i64, ptr %11, align 8
  call void @_ZN3ue29ue2_graphINS_8NGHolderENS_19NFAGraphVertexPropsENS_17NFAGraphEdgePropsEE13add_edge_implENS_12graph_detail17vertex_descriptorIS4_EES7_(ptr sret(%"struct.std::pair.124") align 8 %agg.result, ptr noundef nonnull align 8 dereferenceable(56) %add.ptr, ptr %6, i64 %8, ptr %10, i64 %12)
  ret void
}

; Function Attrs: mustprogress nounwind uwtable
define linkonce_odr hidden noundef nonnull align 8 dereferenceable(136) ptr @_ZNKSt10unique_ptrIN3ue28NGHolderESt14default_deleteIS1_EEdeEv(ptr noundef nonnull align 8 dereferenceable(8) %this) #1 comdat align 2 {
entry:
  %this.addr = alloca ptr, align 8
  store ptr %this, ptr %this.addr, align 8
  %this1 = load ptr, ptr %this.addr, align 8
  br label %do.body

do.body:                                          ; preds = %entry
  br label %do.cond

do.cond:                                          ; preds = %do.body
  br label %do.end

do.end:                                           ; preds = %do.cond
  %call = call noundef ptr @_ZNKSt10unique_ptrIN3ue28NGHolderESt14default_deleteIS1_EE3getEv(ptr noundef nonnull align 8 dereferenceable(8) %this1) #2
  ret ptr %call
}

; Function Attrs: mustprogress nounwind uwtable
define linkonce_odr hidden noundef ptr @_ZNKSt10unique_ptrIN3ue28NGHolderESt14default_deleteIS1_EE3getEv(ptr noundef nonnull align 8 dereferenceable(8) %this) #1 comdat align 2 {
entry:
  %this.addr = alloca ptr, align 8
  store ptr %this, ptr %this.addr, align 8
  %this1 = load ptr, ptr %this.addr, align 8
  %_M_t = getelementptr inbounds %"class.std::unique_ptr.85", ptr %this1, i32 0, i32 0
  %call = call noundef ptr @_ZNKSt15__uniq_ptr_implIN3ue28NGHolderESt14default_deleteIS1_EE6_M_ptrEv(ptr noundef nonnull align 8 dereferenceable(8) %_M_t) #2
  ret ptr %call
}

; Function Attrs: mustprogress nounwind uwtable
define linkonce_odr hidden noundef nonnull align 8 dereferenceable(16) ptr @_ZNKSt6vectorIN3ue212graph_detail17vertex_descriptorINS0_9ue2_graphINS0_8NGHolderENS0_19NFAGraphVertexPropsENS0_17NFAGraphEdgePropsEEEEESaIS8_EEixEm(ptr noundef nonnull align 8 dereferenceable(24) %this, i64 noundef %__n) #1 comdat align 2 {
entry:
  %this.addr = alloca ptr, align 8
  %__n.addr = alloca i64, align 8
  store ptr %this, ptr %this.addr, align 8
  store i64 %__n, ptr %__n.addr, align 8
  %this1 = load ptr, ptr %this.addr, align 8
  %_M_impl = getelementptr inbounds %"struct.std::_Vector_base.94", ptr %this1, i32 0, i32 0
  %_M_start = getelementptr inbounds %"struct.std::_Vector_base<ue2::graph_detail::vertex_descriptor<ue2::ue2_graph<ue2::NGHolder, ue2::NFAGraphVertexProps, ue2::NFAGraphEdgeProps>>, std::allocator<ue2::graph_detail::vertex_descriptor<ue2::ue2_graph<ue2::NGHolder, ue2::NFAGraphVertexProps, ue2::NFAGraphEdgeProps>>>>::_Vector_impl_data", ptr %_M_impl, i32 0, i32 0
  %0 = load ptr, ptr %_M_start, align 8
  %1 = load i64, ptr %__n.addr, align 8
  %add.ptr = getelementptr inbounds %"class.ue2::graph_detail::vertex_descriptor", ptr %0, i64 %1
  ret ptr %add.ptr
}

; Function Attrs: mustprogress uwtable
define internal void @_ZN3ue212_GLOBAL__N_114NFABuilderImpl7addEdgeENS_12graph_detail17vertex_descriptorINS_9ue2_graphINS_8NGHolderENS_19NFAGraphVertexPropsENS_17NFAGraphEdgePropsEEEEES9_(ptr noalias sret(%"struct.std::pair.124") align 8 %agg.result, ptr noundef nonnull align 8 dereferenceable(116) %this, ptr %u.coerce0, i64 %u.coerce1, ptr %v.coerce0, i64 %v.coerce1) #3 align 2 {
entry:
  %u = alloca %"class.ue2::graph_detail::vertex_descriptor", align 8
  %v = alloca %"class.ue2::graph_detail::vertex_descriptor", align 8
  %this.addr = alloca ptr, align 8
  %agg.tmp = alloca %"class.ue2::graph_detail::vertex_descriptor", align 8
  %agg.tmp2 = alloca %"class.ue2::graph_detail::vertex_descriptor", align 8
  %0 = getelementptr inbounds { ptr, i64 }, ptr %u, i32 0, i32 0
  store ptr %u.coerce0, ptr %0, align 8
  %1 = getelementptr inbounds { ptr, i64 }, ptr %u, i32 0, i32 1
  store i64 %u.coerce1, ptr %1, align 8
  %2 = getelementptr inbounds { ptr, i64 }, ptr %v, i32 0, i32 0
  store ptr %v.coerce0, ptr %2, align 8
  %3 = getelementptr inbounds { ptr, i64 }, ptr %v, i32 0, i32 1
  store i64 %v.coerce1, ptr %3, align 8
  store ptr %this, ptr %this.addr, align 8
  %this1 = load ptr, ptr %this.addr, align 8
  call void @llvm.memcpy.p0.p0.i64(ptr align 8 %agg.tmp, ptr align 8 %u, i64 16, i1 false)
  call void @llvm.memcpy.p0.p0.i64(ptr align 8 %agg.tmp2, ptr align 8 %v, i64 16, i1 false)
  %graph = getelementptr inbounds %"class.ue2::(anonymous namespace)::NFABuilderImpl", ptr %this1, i32 0, i32 3
  %call = call noundef nonnull align 8 dereferenceable(136) ptr @_ZNKSt10unique_ptrIN3ue28NGHolderESt14default_deleteIS1_EEdeEv(ptr noundef nonnull align 8 dereferenceable(8) %graph) #2
  %4 = getelementptr inbounds { ptr, i64 }, ptr %agg.tmp, i32 0, i32 0
  %5 = load ptr, ptr %4, align 8
  %6 = getelementptr inbounds { ptr, i64 }, ptr %agg.tmp, i32 0, i32 1
  %7 = load i64, ptr %6, align 8
  %8 = getelementptr inbounds { ptr, i64 }, ptr %agg.tmp2, i32 0, i32 0
  %9 = load ptr, ptr %8, align 8
  %10 = getelementptr inbounds { ptr, i64 }, ptr %agg.tmp2, i32 0, i32 1
  %11 = load i64, ptr %10, align 8
  call void @_ZN3ue28add_edgeINS_8NGHolderEEENSt9enable_ifIXsr12is_ue2_graphIT_EE5valueESt4pairINS3_15edge_descriptorEbEE4typeENS3_17vertex_descriptorES9_RS3_(ptr sret(%"struct.std::pair.124") align 8 %agg.result, ptr %5, i64 %7, ptr %9, i64 %11, ptr noundef nonnull align 8 dereferenceable(136) %call)
  ret void
}

; Function Attrs: mustprogress nounwind uwtable
define linkonce_odr hidden noundef zeroext i1 @_ZNK3ue212graph_detail17vertex_descriptorINS_9ue2_graphINS_8NGHolderENS_19NFAGraphVertexPropsENS_17NFAGraphEdgePropsEEEEeqES7_(ptr noundef nonnull align 8 dereferenceable(16) %this, ptr %b.coerce0, i64 %b.coerce1) #1 comdat align 2 {
entry:
  %b = alloca %"class.ue2::graph_detail::vertex_descriptor", align 8
  %this.addr = alloca ptr, align 8
  %0 = getelementptr inbounds { ptr, i64 }, ptr %b, i32 0, i32 0
  store ptr %b.coerce0, ptr %0, align 8
  %1 = getelementptr inbounds { ptr, i64 }, ptr %b, i32 0, i32 1
  store i64 %b.coerce1, ptr %1, align 8
  store ptr %this, ptr %this.addr, align 8
  %this1 = load ptr, ptr %this.addr, align 8
  %p = getelementptr inbounds %"class.ue2::graph_detail::vertex_descriptor", ptr %this1, i32 0, i32 0
  %2 = load ptr, ptr %p, align 8
  %p2 = getelementptr inbounds %"class.ue2::graph_detail::vertex_descriptor", ptr %b, i32 0, i32 0
  %3 = load ptr, ptr %p2, align 8
  %cmp = icmp eq ptr %2, %3
  ret i1 %cmp
}

; Function Attrs: mustprogress nounwind uwtable
define linkonce_odr hidden noundef ptr @_ZNKSt10unique_ptrIN3ue28NGHolderESt14default_deleteIS1_EEptEv(ptr noundef nonnull align 8 dereferenceable(8) %this) #1 comdat align 2 {
entry:
  %this.addr = alloca ptr, align 8
  store ptr %this, ptr %this.addr, align 8
  %this1 = load ptr, ptr %this.addr, align 8
  %call = call noundef ptr @_ZNKSt10unique_ptrIN3ue28NGHolderESt14default_deleteIS1_EE3getEv(ptr noundef nonnull align 8 dereferenceable(8) %this1) #2
  ret ptr %call
}

; Function Attrs: mustprogress nounwind uwtable
define internal { ptr, i64 } @_ZNK3ue212_GLOBAL__N_114NFABuilderImpl9getVertexEj(ptr noundef nonnull align 8 dereferenceable(116) %this, i32 noundef %pos) #1 align 2 {
entry:
  %retval = alloca %"class.ue2::graph_detail::vertex_descriptor", align 8
  %this.addr = alloca ptr, align 8
  %pos.addr = alloca i32, align 4
  store ptr %this, ptr %this.addr, align 8
  store i32 %pos, ptr %pos.addr, align 4
  %this1 = load ptr, ptr %this.addr, align 8
  %id2vertex = getelementptr inbounds %"class.ue2::(anonymous namespace)::NFABuilderImpl", ptr %this1, i32 0, i32 5
  %0 = load i32, ptr %pos.addr, align 4
  %conv = zext i32 %0 to i64
  %call = call noundef nonnull align 8 dereferenceable(16) ptr @_ZNKSt6vectorIN3ue212graph_detail17vertex_descriptorINS0_9ue2_graphINS0_8NGHolderENS0_19NFAGraphVertexPropsENS0_17NFAGraphEdgePropsEEEEESaIS8_EEixEm(ptr noundef nonnull align 8 dereferenceable(24) %id2vertex, i64 noundef %conv) #2
  call void @llvm.memcpy.p0.p0.i64(ptr align 8 %retval, ptr align 8 %call, i64 16, i1 false)
  %1 = load { ptr, i64 }, ptr %retval, align 8
  ret { ptr, i64 } %1
}

; Function Attrs: mustprogress uwtable
define internal void @_ZN3ue212_GLOBAL__N_114NFABuilderImpl7addEdgeEjj(ptr noundef nonnull align 8 dereferenceable(116) %this, i32 noundef %startPos, i32 noundef %endPos) unnamed_addr #3 align 2 {
entry:
  %this.addr = alloca ptr, align 8
  %startPos.addr = alloca i32, align 4
  %endPos.addr = alloca i32, align 4
  %u = alloca %"class.ue2::graph_detail::vertex_descriptor", align 8
  %v = alloca %"class.ue2::graph_detail::vertex_descriptor", align 8
  %agg.tmp = alloca %"class.ue2::graph_detail::vertex_descriptor", align 8
  %agg.tmp5 = alloca %"class.ue2::graph_detail::vertex_descriptor", align 8
  %agg.tmp9 = alloca %"class.ue2::graph_detail::vertex_descriptor", align 8
  %agg.tmp14 = alloca %"class.ue2::graph_detail::vertex_descriptor", align 8
  %agg.tmp15 = alloca %"class.ue2::graph_detail::vertex_descriptor", align 8
  %tmp = alloca %"struct.std::pair.124", align 8
  store ptr %this, ptr %this.addr, align 8
  store i32 %startPos, ptr %startPos.addr, align 4
  store i32 %endPos, ptr %endPos.addr, align 4
  %this1 = load ptr, ptr %this.addr, align 8
  br label %do.body

do.body:                                          ; preds = %entry
  br label %do.end

do.end:                                           ; preds = %do.body
  %0 = load i32, ptr %startPos.addr, align 4
  %call = call { ptr, i64 } @_ZNK3ue212_GLOBAL__N_114NFABuilderImpl9getVertexEj(ptr noundef nonnull align 8 dereferenceable(116) %this1, i32 noundef %0)
  %1 = getelementptr inbounds { ptr, i64 }, ptr %u, i32 0, i32 0
  %2 = extractvalue { ptr, i64 } %call, 0
  store ptr %2, ptr %1, align 8
  %3 = getelementptr inbounds { ptr, i64 }, ptr %u, i32 0, i32 1
  %4 = extractvalue { ptr, i64 } %call, 1
  store i64 %4, ptr %3, align 8
  %5 = load i32, ptr %endPos.addr, align 4
  %call2 = call { ptr, i64 } @_ZNK3ue212_GLOBAL__N_114NFABuilderImpl9getVertexEj(ptr noundef nonnull align 8 dereferenceable(116) %this1, i32 noundef %5)
  %6 = getelementptr inbounds { ptr, i64 }, ptr %v, i32 0, i32 0
  %7 = extractvalue { ptr, i64 } %call2, 0
  store ptr %7, ptr %6, align 8
  %8 = getelementptr inbounds { ptr, i64 }, ptr %v, i32 0, i32 1
  %9 = extractvalue { ptr, i64 } %call2, 1
  store i64 %9, ptr %8, align 8
  %graph = getelementptr inbounds %"class.ue2::(anonymous namespace)::NFABuilderImpl", ptr %this1, i32 0, i32 3
  %call3 = call noundef ptr @_ZNKSt10unique_ptrIN3ue28NGHolderESt14default_deleteIS1_EEptEv(ptr noundef nonnull align 8 dereferenceable(8) %graph) #2
  %start = getelementptr inbounds %"class.ue2::NGHolder", ptr %call3, i32 0, i32 3
  call void @llvm.memcpy.p0.p0.i64(ptr align 8 %agg.tmp, ptr align 8 %start, i64 16, i1 false)
  %10 = getelementptr inbounds { ptr, i64 }, ptr %agg.tmp, i32 0, i32 0
  %11 = load ptr, ptr %10, align 8
  %12 = getelementptr inbounds { ptr, i64 }, ptr %agg.tmp, i32 0, i32 1
  %13 = load i64, ptr %12, align 8
  %call4 = call noundef zeroext i1 @_ZNK3ue212graph_detail17vertex_descriptorINS_9ue2_graphINS_8NGHolderENS_19NFAGraphVertexPropsENS_17NFAGraphEdgePropsEEEEeqES7_(ptr noundef nonnull align 8 dereferenceable(16) %u, ptr %11, i64 %13)
  br i1 %call4, label %land.lhs.true, label %lor.lhs.false

lor.lhs.false:                                    ; preds = %do.end
  %graph6 = getelementptr inbounds %"class.ue2::(anonymous namespace)::NFABuilderImpl", ptr %this1, i32 0, i32 3
  %call7 = call noundef ptr @_ZNKSt10unique_ptrIN3ue28NGHolderESt14default_deleteIS1_EEptEv(ptr noundef nonnull align 8 dereferenceable(8) %graph6) #2
  %startDs = getelementptr inbounds %"class.ue2::NGHolder", ptr %call7, i32 0, i32 4
  call void @llvm.memcpy.p0.p0.i64(ptr align 8 %agg.tmp5, ptr align 8 %startDs, i64 16, i1 false)
  %14 = getelementptr inbounds { ptr, i64 }, ptr %agg.tmp5, i32 0, i32 0
  %15 = load ptr, ptr %14, align 8
  %16 = getelementptr inbounds { ptr, i64 }, ptr %agg.tmp5, i32 0, i32 1
  %17 = load i64, ptr %16, align 8
  %call8 = call noundef zeroext i1 @_ZNK3ue212graph_detail17vertex_descriptorINS_9ue2_graphINS_8NGHolderENS_19NFAGraphVertexPropsENS_17NFAGraphEdgePropsEEEEeqES7_(ptr noundef nonnull align 8 dereferenceable(16) %u, ptr %15, i64 %17)
  br i1 %call8, label %land.lhs.true, label %if.end

land.lhs.true:                                    ; preds = %lor.lhs.false, %do.end
  %graph10 = getelementptr inbounds %"class.ue2::(anonymous namespace)::NFABuilderImpl", ptr %this1, i32 0, i32 3
  %call11 = call noundef ptr @_ZNKSt10unique_ptrIN3ue28NGHolderESt14default_deleteIS1_EEptEv(ptr noundef nonnull align 8 dereferenceable(8) %graph10) #2
  %startDs12 = getelementptr inbounds %"class.ue2::NGHolder", ptr %call11, i32 0, i32 4
  call void @llvm.memcpy.p0.p0.i64(ptr align 8 %agg.tmp9, ptr align 8 %startDs12, i64 16, i1 false)
  %18 = getelementptr inbounds { ptr, i64 }, ptr %agg.tmp9, i32 0, i32 0
  %19 = load ptr, ptr %18, align 8
  %20 = getelementptr inbounds { ptr, i64 }, ptr %agg.tmp9, i32 0, i32 1
  %21 = load i64, ptr %20, align 8
  %call13 = call noundef zeroext i1 @_ZNK3ue212graph_detail17vertex_descriptorINS_9ue2_graphINS_8NGHolderENS_19NFAGraphVertexPropsENS_17NFAGraphEdgePropsEEEEeqES7_(ptr noundef nonnull align 8 dereferenceable(16) %v, ptr %19, i64 %21)
  br i1 %call13, label %if.then, label %if.end

if.then:                                          ; preds = %land.lhs.true
  br label %return

if.end:                                           ; preds = %land.lhs.true, %lor.lhs.false
  call void @llvm.memcpy.p0.p0.i64(ptr align 8 %agg.tmp14, ptr align 8 %u, i64 16, i1 false)
  call void @llvm.memcpy.p0.p0.i64(ptr align 8 %agg.tmp15, ptr align 8 %v, i64 16, i1 false)
  %22 = getelementptr inbounds { ptr, i64 }, ptr %agg.tmp14, i32 0, i32 0
  %23 = load ptr, ptr %22, align 8
  %24 = getelementptr inbounds { ptr, i64 }, ptr %agg.tmp14, i32 0, i32 1
  %25 = load i64, ptr %24, align 8
  %26 = getelementptr inbounds { ptr, i64 }, ptr %agg.tmp15, i32 0, i32 0
  %27 = load ptr, ptr %26, align 8
  %28 = getelementptr inbounds { ptr, i64 }, ptr %agg.tmp15, i32 0, i32 1
  %29 = load i64, ptr %28, align 8
  call void @_ZN3ue212_GLOBAL__N_114NFABuilderImpl7addEdgeENS_12graph_detail17vertex_descriptorINS_9ue2_graphINS_8NGHolderENS_19NFAGraphVertexPropsENS_17NFAGraphEdgePropsEEEEES9_(ptr sret(%"struct.std::pair.124") align 8 %tmp, ptr noundef nonnull align 8 dereferenceable(116) %this1, ptr %23, i64 %25, ptr %27, i64 %29)
  br label %return

return:                                           ; preds = %if.end, %if.then
  ret void
}