; Function Attrs: mustprogress uwtable
define internal void @_ZN3ue212_GLOBAL__N_114NFABuilderImpl7addEdgeEjj(ptr nocapture noundef nonnull readonly align 8 dereferenceable(116) %this, i32 noundef %startPos, i32 noundef %endPos) unnamed_addr #2 align 2 {
entry:
  %tmp = alloca %"struct.std::pair.124", align 8
  %0 = getelementptr inbounds i8, ptr %this, i64 88
  %this.val = load ptr, ptr %0, align 8
  %conv.i = zext i32 %startPos to i64
  %add.ptr.i.i = getelementptr inbounds %"class.ue2::graph_detail::vertex_descriptor", ptr %this.val, i64 %conv.i
  %retval.sroa.0.0.copyload.i = load ptr, ptr %add.ptr.i.i, align 8
  %retval.sroa.2.0.call.sroa_idx.i = getelementptr inbounds i8, ptr %add.ptr.i.i, i64 8
  %retval.sroa.2.0.copyload.i = load i64, ptr %retval.sroa.2.0.call.sroa_idx.i, align 8
  %conv.i3 = zext i32 %endPos to i64
  %add.ptr.i.i4 = getelementptr inbounds %"class.ue2::graph_detail::vertex_descriptor", ptr %this.val, i64 %conv.i3
  %retval.sroa.0.0.copyload.i5 = load ptr, ptr %add.ptr.i.i4, align 8
  %retval.sroa.2.0.call.sroa_idx.i6 = getelementptr inbounds i8, ptr %add.ptr.i.i4, i64 8
  %retval.sroa.2.0.copyload.i7 = load i64, ptr %retval.sroa.2.0.call.sroa_idx.i6, align 8
  %graph = getelementptr inbounds i8, ptr %this, i64 24
  %1 = load ptr, ptr %graph, align 8
  %start = getelementptr inbounds i8, ptr %1, i64 72
  %agg.tmp.sroa.0.0.copyload = load ptr, ptr %start, align 8
  %cmp.i = icmp eq ptr %retval.sroa.0.0.copyload.i, %agg.tmp.sroa.0.0.copyload
  %startDs12.phi.trans.insert = getelementptr inbounds i8, ptr %1, i64 88
  %agg.tmp9.sroa.0.0.copyload.pre = load ptr, ptr %startDs12.phi.trans.insert, align 8
  br i1 %cmp.i, label %land.lhs.true, label %lor.lhs.false

lor.lhs.false:                                    ; preds = %entry
  %cmp.i10 = icmp eq ptr %retval.sroa.0.0.copyload.i, %agg.tmp9.sroa.0.0.copyload.pre
  br i1 %cmp.i10, label %land.lhs.true, label %if.end

land.lhs.true:                                    ; preds = %entry, %lor.lhs.false
  %agg.tmp9.sroa.0.0.copyload = phi ptr [ %retval.sroa.0.0.copyload.i, %lor.lhs.false ], [ %agg.tmp9.sroa.0.0.copyload.pre, %entry ]
  %cmp.i11 = icmp eq ptr %retval.sroa.0.0.copyload.i5, %agg.tmp9.sroa.0.0.copyload
  br i1 %cmp.i11, label %return, label %if.end

if.end:                                           ; preds = %land.lhs.true, %lor.lhs.false
  %add.ptr.i.i12 = getelementptr inbounds i8, ptr %1, i64 8
  call void @_ZN3ue29ue2_graphINS_8NGHolderENS_19NFAGraphVertexPropsENS_17NFAGraphEdgePropsEE13add_edge_implENS_12graph_detail17vertex_descriptorIS4_EES7_(ptr nonnull sret(%"struct.std::pair.124") align 8 %tmp, ptr noundef nonnull align 8 dereferenceable(56) %add.ptr.i.i12, ptr %retval.sroa.0.0.copyload.i, i64 %retval.sroa.2.0.copyload.i, ptr %retval.sroa.0.0.copyload.i5, i64 %retval.sroa.2.0.copyload.i7)
  br label %return

return:                                           ; preds = %land.lhs.true, %if.end
  ret void
}